target datalayout = "e-m:e-p270:32:32-p271:32:32-p272:64:64-i64:64-i128:128-f80:128-n8:16:32:64-S128"
target triple = "x86_64-pc-linux-gnu"

%struct.tmpi_datatype_ = type { i64, ptr, i32, ptr, i32 }
%struct.tmpi_status_ = type { i32, i32, i32, i64, i32 }

@TMPI_COMM_WORLD = external global ptr, align 8

; Function Attrs: mustprogress uwtable
define noundef i32 @_Z14tMPI_Get_countPK12tmpi_status_P14tmpi_datatype_Pi(ptr noundef %0, ptr noundef %1, ptr noundef %2) #0 {
  %4 = alloca i32, align 4
  %5 = alloca ptr, align 8
  %6 = alloca ptr, align 8
  %7 = alloca ptr, align 8
  store ptr %0, ptr %5, align 8, !tbaa !107
  store ptr %1, ptr %6, align 8, !tbaa !91
  store ptr %2, ptr %7, align 8, !tbaa !51
  %8 = load ptr, ptr %5, align 8, !tbaa !107
  %9 = icmp ne ptr %8, null
  br i1 %9, label %13, label %10

10:                                               ; preds = %3
  %11 = load ptr, ptr @TMPI_COMM_WORLD, align 8, !tbaa !3
  %12 = call noundef i32 @_Z10tMPI_ErrorP10tmpi_comm_i(ptr noundef %11, i32 noundef 7)
  store i32 %12, ptr %4, align 4
  br label %23

13:                                               ; preds = %3
  %14 = load ptr, ptr %5, align 8, !tbaa !107
  %15 = getelementptr inbounds nuw %struct.tmpi_status_, ptr %14, i32 0, i32 3
  %16 = load i64, ptr %15, align 8, !tbaa !109
  %17 = load ptr, ptr %6, align 8, !tbaa !91
  %18 = getelementptr inbounds nuw %struct.tmpi_datatype_, ptr %17, i32 0, i32 0
  %19 = load i64, ptr %18, align 8, !tbaa !111
  %20 = udiv i64 %16, %19
  %21 = trunc i64 %20 to i32
  %22 = load ptr, ptr %7, align 8, !tbaa !51
  store i32 %21, ptr %22, align 4, !tbaa !30
  store i32 0, ptr %4, align 4
  br label %23

23:                                               ; preds = %13, %10
  %24 = load i32, ptr %4, align 4
  ret i32 %24
}