; Function Attrs: mustprogress uwtable
define noundef i32 @_Z14tMPI_Get_countPK12tmpi_status_P14tmpi_datatype_Pi(ptr noundef readonly %0, ptr noundef readonly captures(none) %1, ptr noundef writeonly captures(none) %2) local_unnamed_addr #0 {
  %.not = icmp eq ptr %0, null
  br i1 %.not, label %4, label %7

4:                                                ; preds = %3
  %5 = load ptr, ptr @TMPI_COMM_WORLD, align 8, !tbaa !3
  %6 = tail call noundef i32 @_Z10tMPI_ErrorP10tmpi_comm_i(ptr noundef %5, i32 noundef 7)
  br label %13

7:                                                ; preds = %3
  %8 = getelementptr inbounds nuw i8, ptr %0, i64 16
  %9 = load i64, ptr %8, align 8, !tbaa !95
  %10 = load i64, ptr %1, align 8, !tbaa !97
  %11 = udiv i64 %9, %10
  %12 = trunc i64 %11 to i32
  store i32 %12, ptr %2, align 4, !tbaa !46
  br label %13

13:                                               ; preds = %7, %4
  %.0 = phi i32 [ 0, %7 ], [ %6, %4 ]
  ret i32 %.0
}